; Function Attrs: nounwind uwtable
define void @duckdb_je_tcache_enabled_set(ptr noundef %0, i1 noundef zeroext %1) local_unnamed_addr #0 {
  %3 = load i8, ptr %0, align 1, !tbaa !17, !range !19, !noundef !20
  %4 = trunc nuw i8 %3 to i1
  %.not = xor i1 %1, true
  %brmerge = or i1 %.not, %4
  br i1 %brmerge, label %6, label %5

5:                                                ; preds = %2
  tail call fastcc void @duckdb_je_tsd_tcache_data_init(ptr noundef nonnull %0, ptr noundef null, ptr noundef nonnull @opt_tcache_ncached_max)
  br label %9

6:                                                ; preds = %2
  %.not9 = xor i1 %4, true
  %brmerge10 = or i1 %1, %.not9
  br i1 %brmerge10, label %9, label %duckdb_je_tcache_cleanup.exit

duckdb_je_tcache_cleanup.exit:                    ; preds = %6
  %7 = getelementptr inbounds nuw i8, ptr %0, i64 864
  tail call fastcc void @tcache_destroy(ptr noundef nonnull %0, ptr noundef nonnull %7, i1 noundef zeroext true)
  %8 = getelementptr inbounds nuw i8, ptr %0, i64 872
  tail call void @llvm.memset.p0.i64(ptr noundef nonnull align 8 dereferenceable(1752) %8, i8 0, i64 1752, i1 false)
  br label %9

9:                                                ; preds = %6, %duckdb_je_tcache_cleanup.exit, %5
  %10 = zext i1 %1 to i8
  store i8 %10, ptr %0, align 1, !tbaa !17
  tail call void @duckdb_je_tsd_slow_update(ptr noundef nonnull %0) #16
  ret void
}